target datalayout = "e-m:e-p270:32:32-p271:32:32-p272:64:64-i64:64-i128:128-f80:128-n8:16:32:64-S128"
target triple = "x86_64-pc-linux-gnu"

; Function Attrs: inlinehint nounwind uwtable
define internal void @PutLE16(ptr noundef %0, i32 noundef %1) #3 {
  %3 = alloca ptr, align 8
  %4 = alloca i32, align 4
  store ptr %0, ptr %3, align 8, !tbaa !26
  store i32 %1, ptr %4, align 4, !tbaa !19
  %5 = load i32, ptr %4, align 4, !tbaa !19
  %6 = ashr i32 %5, 0
  %7 = and i32 %6, 255
  %8 = trunc i32 %7 to i8
  %9 = load ptr, ptr %3, align 8, !tbaa !26
  %10 = getelementptr inbounds i8, ptr %9, i64 0
  store i8 %8, ptr %10, align 1, !tbaa !27
  %11 = load i32, ptr %4, align 4, !tbaa !19
  %12 = ashr i32 %11, 8
  %13 = and i32 %12, 255
  %14 = trunc i32 %13 to i8
  %15 = load ptr, ptr %3, align 8, !tbaa !26
  %16 = getelementptr inbounds i8, ptr %15, i64 1
  store i8 %14, ptr %16, align 1, !tbaa !27
  ret void
}

; Function Attrs: inlinehint nounwind uwtable
define internal void @PutLE32(ptr noundef %0, i32 noundef %1) #3 {
  %3 = alloca ptr, align 8
  %4 = alloca i32, align 4
  store ptr %0, ptr %3, align 8, !tbaa !26
  store i32 %1, ptr %4, align 4, !tbaa !19
  %5 = load ptr, ptr %3, align 8, !tbaa !26
  %6 = load i32, ptr %4, align 4, !tbaa !19
  %7 = and i32 %6, 65535
  call void @PutLE16(ptr noundef %5, i32 noundef %7)
  %8 = load ptr, ptr %3, align 8, !tbaa !26
  %9 = getelementptr inbounds i8, ptr %8, i64 2
  %10 = load i32, ptr %4, align 4, !tbaa !19
  %11 = lshr i32 %10, 16
  call void @PutLE16(ptr noundef %9, i32 noundef %11)
  ret void
}

; Function Attrs: nounwind uwtable
define hidden ptr @MuxEmitRiffHeader(ptr noundef %0, i64 noundef %1) #0 {
  %3 = alloca ptr, align 8
  %4 = alloca i64, align 8
  store ptr %0, ptr %3, align 8, !tbaa !26
  store i64 %1, ptr %4, align 8, !tbaa !31
  %5 = load ptr, ptr %3, align 8, !tbaa !26
  %6 = getelementptr inbounds i8, ptr %5, i64 0
  call void @PutLE32(ptr noundef %6, i32 noundef 1179011410)
  %7 = load ptr, ptr %3, align 8, !tbaa !26
  %8 = getelementptr inbounds i8, ptr %7, i64 4
  %9 = load i64, ptr %4, align 8, !tbaa !31
  %10 = trunc i64 %9 to i32
  %11 = sub i32 %10, 8
  call void @PutLE32(ptr noundef %8, i32 noundef %11)
  %12 = load ptr, ptr %3, align 8, !tbaa !26
  %13 = getelementptr inbounds i8, ptr %12, i64 4
  %14 = getelementptr inbounds i8, ptr %13, i64 4
  call void @PutLE32(ptr noundef %14, i32 noundef 1346520407)
  %15 = load ptr, ptr %3, align 8, !tbaa !26
  %16 = getelementptr inbounds i8, ptr %15, i64 12
  ret ptr %16
}