; Function Attrs: mustprogress nofree norecurse nosync nounwind willreturn memory(argmem: write) uwtable
define hidden nonnull ptr @MuxEmitRiffHeader(ptr noundef writeonly captures(ret: address, provenance) initializes((0, 12)) %0, i64 noundef %1) local_unnamed_addr #1 {
  store i8 82, ptr %0, align 1, !tbaa !21
  %3 = getelementptr inbounds nuw i8, ptr %0, i64 1
  store i8 73, ptr %3, align 1, !tbaa !21
  %4 = getelementptr inbounds nuw i8, ptr %0, i64 2
  store i8 70, ptr %4, align 1, !tbaa !21
  %5 = getelementptr inbounds nuw i8, ptr %0, i64 3
  store i8 70, ptr %5, align 1, !tbaa !21
  %6 = getelementptr inbounds nuw i8, ptr %0, i64 4
  %7 = trunc i64 %1 to i32
  %8 = add i32 %7, -8
  %9 = trunc i32 %8 to i8
  store i8 %9, ptr %6, align 1, !tbaa !21
  %10 = lshr i32 %8, 8
  %11 = trunc i32 %10 to i8
  %12 = getelementptr inbounds nuw i8, ptr %0, i64 5
  store i8 %11, ptr %12, align 1, !tbaa !21
  %13 = getelementptr inbounds nuw i8, ptr %0, i64 6
  %14 = lshr i32 %8, 16
  %15 = trunc i32 %14 to i8
  store i8 %15, ptr %13, align 1, !tbaa !21
  %16 = lshr i32 %8, 24
  %17 = trunc nuw i32 %16 to i8
  %18 = getelementptr inbounds nuw i8, ptr %0, i64 7
  store i8 %17, ptr %18, align 1, !tbaa !21
  %19 = getelementptr inbounds nuw i8, ptr %0, i64 8
  store i8 87, ptr %19, align 1, !tbaa !21
  %20 = getelementptr inbounds nuw i8, ptr %0, i64 9
  store i8 69, ptr %20, align 1, !tbaa !21
  %21 = getelementptr inbounds nuw i8, ptr %0, i64 10
  store i8 66, ptr %21, align 1, !tbaa !21
  %22 = getelementptr inbounds nuw i8, ptr %0, i64 11
  store i8 80, ptr %22, align 1, !tbaa !21
  %23 = getelementptr inbounds nuw i8, ptr %0, i64 12
  ret ptr %23
}